; Function Attrs: nounwind uwtable
define ptr @H5FO_opened(ptr noundef readonly captures(none) %0, i64 noundef %1) local_unnamed_addr #0 {
  %3 = alloca i64, align 8
  store i64 %1, ptr %3, align 8, !tbaa !36
  %4 = getelementptr inbounds nuw i8, ptr %0, i64 16
  %5 = load ptr, ptr %4, align 8, !tbaa !3
  %6 = getelementptr inbounds nuw i8, ptr %5, i64 1464
  %7 = load ptr, ptr %6, align 8, !tbaa !15
  %8 = call ptr @H5SL_search(ptr noundef %7, ptr noundef nonnull %3) #2
  %.not = icmp eq ptr %8, null
  br i1 %.not, label %12, label %9

9:                                                ; preds = %2
  %10 = getelementptr inbounds nuw i8, ptr %8, i64 8
  %11 = load ptr, ptr %10, align 8, !tbaa !37
  br label %12

12:                                               ; preds = %2, %9
  %.0 = phi ptr [ %11, %9 ], [ null, %2 ]
  ret ptr %.0
}